; Function Attrs: mustprogress nofree norecurse nosync nounwind willreturn memory(argmem: read) uwtable
define i32 @_ZNK10open_spiel6y_game6YState12ActionToMoveEl(ptr nocapture noundef nonnull readonly align 8 dereferenceable(113) %0, i64 noundef %1) local_unnamed_addr #6 align 2 {
  %3 = getelementptr inbounds nuw i8, ptr %0, i64 92
  %4 = load i32, ptr %3, align 4
  %5 = sext i32 %4 to i64
  %6 = srem i64 %1, %5
  %7 = trunc nsw i64 %6 to i32
  %8 = sdiv i64 %1, %5
  %9 = trunc i64 %8 to i32
  %10 = or i32 %9, %7
  %or.cond.i.i = icmp sgt i32 %10, -1
  %11 = icmp sgt i32 %4, %7
  %or.cond17.i.i = and i1 %11, %or.cond.i.i
  %12 = icmp sgt i32 %4, %9
  %or.cond18.i.i = and i1 %12, %or.cond17.i.i
  %13 = add nuw nsw i32 %9, %7
  %14 = icmp slt i32 %13, %4
  %or.cond20.i.i = select i1 %or.cond18.i.i, i1 %14, i1 false
  %15 = mul nsw i32 %4, %9
  %16 = add nuw nsw i32 %15, %7
  %17 = shl i32 %16, 16
  %.sroa.3.0.insert.shift = select i1 %or.cond20.i.i, i32 %17, i32 -131072
  %.sroa.2.0.insert.ext = shl i32 %9, 8
  %.sroa.2.0.insert.shift = and i32 %.sroa.2.0.insert.ext, 65280
  %.sroa.0.0.insert.ext = and i32 %7, 255
  %.sroa.2.0.insert.insert = or disjoint i32 %.sroa.2.0.insert.shift, %.sroa.0.0.insert.ext
  %.sroa.0.0.insert.insert = or disjoint i32 %.sroa.2.0.insert.insert, %.sroa.3.0.insert.shift
  ret i32 %.sroa.0.0.insert.insert
}